; Function Attrs: mustprogress uwtable
define void @_Z19add_blocks_enxframeP10t_enxframei(ptr nocapture noundef %0, i32 noundef %1) local_unnamed_addr #1 {
  %3 = getelementptr inbounds i8, ptr %0, i64 56
  store i32 %1, ptr %3, align 8
  %4 = getelementptr inbounds i8, ptr %0, i64 72
  %5 = load i32, ptr %4, align 8
  %6 = icmp slt i32 %5, %1
  br i1 %6, label %7, label %21

7:                                                ; preds = %2
  %8 = getelementptr inbounds i8, ptr %0, i64 64
  %9 = sext i32 %1 to i64
  %10 = load ptr, ptr %8, align 8
  %11 = tail call noundef ptr @_Z12save_reallocPKcS0_iPvmm(ptr noundef nonnull @.str.10, ptr noundef nonnull @.str.9, i32 noundef 283, ptr noundef %10, i64 noundef %9, i64 noundef 24)
  store ptr %11, ptr %8, align 8
  %12 = load i32, ptr %4, align 8
  %13 = load i32, ptr %3, align 8
  %14 = icmp slt i32 %12, %13
  br i1 %14, label %.lr.ph.preheader, label %._crit_edge

.lr.ph.preheader:                                 ; preds = %7
  %15 = sext i32 %12 to i64
  br label %.lr.ph

.lr.ph:                                           ; preds = %.lr.ph.preheader, %.lr.ph
  %indvars.iv = phi i64 [ %15, %.lr.ph.preheader ], [ %indvars.iv.next, %.lr.ph ]
  %16 = load ptr, ptr %8, align 8
  %17 = getelementptr inbounds %struct.t_enxblock, ptr %16, i64 %indvars.iv
  tail call void @llvm.memset.p0.i64(ptr noundef nonnull align 8 dereferenceable(20) %17, i8 0, i64 20, i1 false)
  %indvars.iv.next = add nsw i64 %indvars.iv, 1
  %18 = load i32, ptr %3, align 8
  %19 = sext i32 %18 to i64
  %20 = icmp slt i64 %indvars.iv.next, %19
  br i1 %20, label %.lr.ph, label %._crit_edge, !llvm.loop !9

._crit_edge:                                      ; preds = %.lr.ph, %7
  store i32 %1, ptr %4, align 8
  br label %21

21:                                               ; preds = %._crit_edge, %2
  ret void
}